target datalayout = "e-m:e-p270:32:32-p271:32:32-p272:64:64-i64:64-i128:128-f80:128-n8:16:32:64-S128"
target triple = "x86_64-pc-linux-gnu"

%"class.llvm::SmallVectorBase" = type { ptr, i32, i32 }
%"class.(anonymous namespace)::Polynomial" = type { i32, ptr, %"class.llvm::SmallVector.222", %"class.llvm::APInt" }
%"class.llvm::SmallVector.222" = type { %"class.llvm::SmallVectorImpl.223", %"struct.llvm::SmallVectorStorage.226" }
%"class.llvm::SmallVectorImpl.223" = type { %"class.llvm::SmallVectorTemplateBase.224" }
%"class.llvm::SmallVectorTemplateBase.224" = type { %"class.llvm::SmallVectorTemplateCommon.225" }
%"class.llvm::SmallVectorTemplateCommon.225" = type { %"class.llvm::SmallVectorBase" }
%"struct.llvm::SmallVectorStorage.226" = type { [96 x i8] }
%"class.llvm::APInt" = type <{ %union.anon.227, i32, [4 x i8] }>
%union.anon.227 = type { i64 }
%"struct.std::pair.230" = type { i32, [4 x i8], %"class.llvm::APInt" }

; Function Attrs: mustprogress nounwind uwtable
define linkonce_odr hidden noundef zeroext i1 @_ZNK4llvm5APInt12needsCleanupEv(ptr noundef nonnull align 8 dereferenceable(12) %0) #1 comdat align 2 {
  %2 = alloca ptr, align 8
  store ptr %0, ptr %2, align 8
  %3 = load ptr, ptr %2, align 8
  %4 = call noundef zeroext i1 @_ZNK4llvm5APInt12isSingleWordEv(ptr noundef nonnull align 8 dereferenceable(12) %3)
  %5 = xor i1 %4, true
  ret i1 %5
}

; Function Attrs: mustprogress nounwind uwtable
define linkonce_odr hidden void @_ZN4llvm5APIntD2Ev(ptr noundef nonnull align 8 dereferenceable(12) %0) unnamed_addr #1 comdat align 2 {
  %2 = alloca ptr, align 8
  store ptr %0, ptr %2, align 8
  %3 = load ptr, ptr %2, align 8
  %4 = call noundef zeroext i1 @_ZNK4llvm5APInt12needsCleanupEv(ptr noundef nonnull align 8 dereferenceable(12) %3)
  br i1 %4, label %5, label %11

5:                                                ; preds = %1
  %6 = getelementptr inbounds nuw %"class.llvm::APInt", ptr %3, i32 0, i32 0
  %7 = load ptr, ptr %6, align 8
  %8 = icmp eq ptr %7, null
  br i1 %8, label %10, label %9

9:                                                ; preds = %5
  call void @_ZdaPv(ptr noundef %7) #16
  br label %10

10:                                               ; preds = %9, %5
  br label %11

11:                                               ; preds = %10, %1
  ret void
}

; Function Attrs: mustprogress nounwind uwtable
define internal void @_ZNSt4pairIN12_GLOBAL__N_110Polynomial4BOpsEN4llvm5APIntEED2Ev(ptr noundef nonnull align 8 dereferenceable(24) %0) unnamed_addr #1 align 2 {
  %2 = alloca ptr, align 8
  store ptr %0, ptr %2, align 8
  %3 = load ptr, ptr %2, align 8
  %4 = getelementptr inbounds nuw %"struct.std::pair.230", ptr %3, i32 0, i32 2
  call void @_ZN4llvm5APIntD2Ev(ptr noundef nonnull align 8 dereferenceable(12) %4) #2
  ret void
}

; Function Attrs: mustprogress nounwind uwtable
define linkonce_odr hidden noundef i32 @_ZN4llvm6detail20TrailingZerosCounterImLm8EE5countEm(i64 noundef %0) #1 comdat align 2 {
  %2 = alloca i32, align 4
  %3 = alloca i64, align 8
  store i64 %0, ptr %3, align 8
  %4 = load i64, ptr %3, align 8
  %5 = icmp eq i64 %4, 0
  br i1 %5, label %6, label %7

6:                                                ; preds = %1
  store i32 64, ptr %2, align 4
  br label %11

7:                                                ; preds = %1
  %8 = load i64, ptr %3, align 8
  %9 = call i64 @llvm.cttz.i64(i64 %8, i1 true)
  %10 = trunc i64 %9 to i32
  store i32 %10, ptr %2, align 4
  br label %11

11:                                               ; preds = %7, %6
  %12 = load i32, ptr %2, align 4
  ret i32 %12
}

; Function Attrs: mustprogress nounwind uwtable
define internal void @_ZN4llvm23SmallVectorTemplateBaseISt4pairIN12_GLOBAL__N_110Polynomial4BOpsENS_5APIntEELb0EE13destroy_rangeEPS6_S8_(ptr noundef %0, ptr noundef %1) #1 align 2 {
  %3 = alloca ptr, align 8
  %4 = alloca ptr, align 8
  store ptr %0, ptr %3, align 8
  store ptr %1, ptr %4, align 8
  br label %5

5:                                                ; preds = %9, %2
  %6 = load ptr, ptr %3, align 8
  %7 = load ptr, ptr %4, align 8
  %8 = icmp ne ptr %6, %7
  br i1 %8, label %9, label %13

9:                                                ; preds = %5
  %10 = load ptr, ptr %4, align 8
  %11 = getelementptr inbounds %"struct.std::pair.230", ptr %10, i32 -1
  store ptr %11, ptr %4, align 8
  %12 = load ptr, ptr %4, align 8
  call void @_ZNSt4pairIN12_GLOBAL__N_110Polynomial4BOpsEN4llvm5APIntEED2Ev(ptr noundef nonnull align 8 dereferenceable(24) %12) #2
  br label %5, !llvm.loop !14

13:                                               ; preds = %5
  ret void
}

; Function Attrs: mustprogress nounwind uwtable
define internal noundef ptr @_ZN4llvm25SmallVectorTemplateCommonISt4pairIN12_GLOBAL__N_110Polynomial4BOpsENS_5APIntEEvE3endEv(ptr noundef nonnull align 8 dereferenceable(16) %0) #1 align 2 {
  %2 = alloca ptr, align 8
  store ptr %0, ptr %2, align 8
  %3 = load ptr, ptr %2, align 8
  %4 = call noundef ptr @_ZN4llvm25SmallVectorTemplateCommonISt4pairIN12_GLOBAL__N_110Polynomial4BOpsENS_5APIntEEvE5beginEv(ptr noundef nonnull align 8 dereferenceable(16) %3)
  %5 = call noundef i64 @_ZNK4llvm15SmallVectorBaseIjE4sizeEv(ptr noundef nonnull align 8 dereferenceable(16) %3)
  %6 = getelementptr inbounds %"struct.std::pair.230", ptr %4, i64 %5
  ret ptr %6
}

; Function Attrs: mustprogress nounwind uwtable
define internal noundef ptr @_ZN4llvm25SmallVectorTemplateCommonISt4pairIN12_GLOBAL__N_110Polynomial4BOpsENS_5APIntEEvE5beginEv(ptr noundef nonnull align 8 dereferenceable(16) %0) #1 align 2 {
  %2 = alloca ptr, align 8
  store ptr %0, ptr %2, align 8
  %3 = load ptr, ptr %2, align 8
  %4 = getelementptr inbounds nuw %"class.llvm::SmallVectorBase", ptr %3, i32 0, i32 0
  %5 = load ptr, ptr %4, align 8
  ret ptr %5
}

; Function Attrs: mustprogress nounwind uwtable
define linkonce_odr noundef i32 @_ZN4llvm11countr_zeroImEEiT_(i64 noundef %0) #1 comdat {
  %2 = alloca i64, align 8
  store i64 %0, ptr %2, align 8
  %3 = load i64, ptr %2, align 8
  %4 = call noundef i32 @_ZN4llvm6detail20TrailingZerosCounterImLm8EE5countEm(i64 noundef %3)
  ret i32 %4
}

; Function Attrs: mustprogress nounwind uwtable
define internal void @_ZN4llvm15SmallVectorImplISt4pairIN12_GLOBAL__N_110Polynomial4BOpsENS_5APIntEEE5clearEv(ptr noundef nonnull align 8 dereferenceable(16) %0) #1 align 2 {
  %2 = alloca ptr, align 8
  store ptr %0, ptr %2, align 8
  %3 = load ptr, ptr %2, align 8
  %4 = call noundef ptr @_ZN4llvm25SmallVectorTemplateCommonISt4pairIN12_GLOBAL__N_110Polynomial4BOpsENS_5APIntEEvE5beginEv(ptr noundef nonnull align 8 dereferenceable(16) %3)
  %5 = call noundef ptr @_ZN4llvm25SmallVectorTemplateCommonISt4pairIN12_GLOBAL__N_110Polynomial4BOpsENS_5APIntEEvE3endEv(ptr noundef nonnull align 8 dereferenceable(16) %3)
  call void @_ZN4llvm23SmallVectorTemplateBaseISt4pairIN12_GLOBAL__N_110Polynomial4BOpsENS_5APIntEELb0EE13destroy_rangeEPS6_S8_(ptr noundef %4, ptr noundef %5)
  %6 = getelementptr inbounds nuw %"class.llvm::SmallVectorBase", ptr %3, i32 0, i32 1
  store i32 0, ptr %6, align 8
  ret void
}

; Function Attrs: mustprogress nounwind uwtable
define linkonce_odr hidden noundef zeroext i1 @_ZNK4llvm5APInt12isSingleWordEv(ptr noundef nonnull align 8 dereferenceable(12) %0) #1 comdat align 2 {
  %2 = alloca ptr, align 8
  store ptr %0, ptr %2, align 8
  %3 = load ptr, ptr %2, align 8
  %4 = getelementptr inbounds nuw %"class.llvm::APInt", ptr %3, i32 0, i32 1
  %5 = load i32, ptr %4, align 8
  %6 = icmp ule i32 %5, 64
  ret i1 %6
}

; Function Attrs: mustprogress nounwind uwtable
define internal void @_ZN12_GLOBAL__N_110Polynomial12decErrorMSBsEj(ptr noundef nonnull align 8 dereferenceable(144) %0, i32 noundef %1) #1 align 2 {
  %3 = alloca ptr, align 8
  %4 = alloca i32, align 4
  store ptr %0, ptr %3, align 8
  store i32 %1, ptr %4, align 4
  %5 = load ptr, ptr %3, align 8
  %6 = getelementptr inbounds nuw %"class.(anonymous namespace)::Polynomial", ptr %5, i32 0, i32 0
  %7 = load i32, ptr %6, align 8
  %8 = icmp eq i32 %7, -1
  br i1 %8, label %9, label %10

9:                                                ; preds = %2
  br label %22

10:                                               ; preds = %2
  %11 = getelementptr inbounds nuw %"class.(anonymous namespace)::Polynomial", ptr %5, i32 0, i32 0
  %12 = load i32, ptr %11, align 8
  %13 = load i32, ptr %4, align 4
  %14 = icmp ugt i32 %12, %13
  br i1 %14, label %15, label %20

15:                                               ; preds = %10
  %16 = load i32, ptr %4, align 4
  %17 = getelementptr inbounds nuw %"class.(anonymous namespace)::Polynomial", ptr %5, i32 0, i32 0
  %18 = load i32, ptr %17, align 8
  %19 = sub i32 %18, %16
  store i32 %19, ptr %17, align 8
  br label %22

20:                                               ; preds = %10
  %21 = getelementptr inbounds nuw %"class.(anonymous namespace)::Polynomial", ptr %5, i32 0, i32 0
  store i32 0, ptr %21, align 8
  br label %22

22:                                               ; preds = %20, %15, %9
  ret void
}

; Function Attrs: mustprogress nounwind uwtable
define linkonce_odr hidden noundef i32 @_ZNK4llvm5APInt11countr_zeroEv(ptr noundef nonnull align 8 dereferenceable(12) %0) #1 comdat align 2 {
  %2 = alloca i32, align 4
  %3 = alloca ptr, align 8
  %4 = alloca i32, align 4
  store ptr %0, ptr %3, align 8
  %5 = load ptr, ptr %3, align 8
  %6 = call noundef zeroext i1 @_ZNK4llvm5APInt12isSingleWordEv(ptr noundef nonnull align 8 dereferenceable(12) %5)
  br i1 %6, label %7, label %22

7:                                                ; preds = %1
  %8 = getelementptr inbounds nuw %"class.llvm::APInt", ptr %5, i32 0, i32 0
  %9 = load i64, ptr %8, align 8
  %10 = call noundef i32 @_ZN4llvm11countr_zeroImEEiT_(i64 noundef %9)
  store i32 %10, ptr %4, align 4
  %11 = load i32, ptr %4, align 4
  %12 = getelementptr inbounds nuw %"class.llvm::APInt", ptr %5, i32 0, i32 1
  %13 = load i32, ptr %12, align 8
  %14 = icmp ugt i32 %11, %13
  br i1 %14, label %15, label %18

15:                                               ; preds = %7
  %16 = getelementptr inbounds nuw %"class.llvm::APInt", ptr %5, i32 0, i32 1
  %17 = load i32, ptr %16, align 8
  br label %20

18:                                               ; preds = %7
  %19 = load i32, ptr %4, align 4
  br label %20

20:                                               ; preds = %18, %15
  %21 = phi i32 [ %17, %15 ], [ %19, %18 ]
  store i32 %21, ptr %2, align 4
  br label %24

22:                                               ; preds = %1
  %23 = call noundef i32 @_ZNK4llvm5APInt26countTrailingZerosSlowCaseEv(ptr noundef nonnull align 8 dereferenceable(12) %5) #17
  store i32 %23, ptr %2, align 4
  br label %24

24:                                               ; preds = %22, %20
  %25 = load i32, ptr %2, align 4
  ret i32 %25
}

; Function Attrs: mustprogress nounwind uwtable
define internal void @_ZN12_GLOBAL__N_110Polynomial7deleteBEv(ptr noundef nonnull align 8 dereferenceable(144) %0) #1 align 2 {
  %2 = alloca ptr, align 8
  store ptr %0, ptr %2, align 8
  %3 = load ptr, ptr %2, align 8
  %4 = getelementptr inbounds nuw %"class.(anonymous namespace)::Polynomial", ptr %3, i32 0, i32 1
  store ptr null, ptr %4, align 8
  %5 = getelementptr inbounds nuw %"class.(anonymous namespace)::Polynomial", ptr %3, i32 0, i32 2
  call void @_ZN4llvm15SmallVectorImplISt4pairIN12_GLOBAL__N_110Polynomial4BOpsENS_5APIntEEE5clearEv(ptr noundef nonnull align 8 dereferenceable(16) %5)
  ret void
}

; Function Attrs: mustprogress nounwind uwtable
define linkonce_odr hidden noundef zeroext i1 @_ZNK4llvm5APInt6isZeroEv(ptr noundef nonnull align 8 dereferenceable(12) %0) #1 comdat align 2 {
  %2 = alloca i1, align 1
  %3 = alloca ptr, align 8
  store ptr %0, ptr %3, align 8
  %4 = load ptr, ptr %3, align 8
  %5 = call noundef zeroext i1 @_ZNK4llvm5APInt12isSingleWordEv(ptr noundef nonnull align 8 dereferenceable(12) %4)
  br i1 %5, label %6, label %10

6:                                                ; preds = %1
  %7 = getelementptr inbounds nuw %"class.llvm::APInt", ptr %4, i32 0, i32 0
  %8 = load i64, ptr %7, align 8
  %9 = icmp eq i64 %8, 0
  store i1 %9, ptr %2, align 1
  br label %15

10:                                               ; preds = %1
  %11 = call noundef i32 @_ZNK4llvm5APInt25countLeadingZerosSlowCaseEv(ptr noundef nonnull align 8 dereferenceable(12) %4) #17
  %12 = getelementptr inbounds nuw %"class.llvm::APInt", ptr %4, i32 0, i32 1
  %13 = load i32, ptr %12, align 8
  %14 = icmp eq i32 %11, %13
  store i1 %14, ptr %2, align 1
  br label %15

15:                                               ; preds = %10, %6
  %16 = load i1, ptr %2, align 1
  ret i1 %16
}

; Function Attrs: mustprogress nounwind uwtable
define linkonce_odr hidden noundef zeroext i1 @_ZNK4llvm5APInt5isOneEv(ptr noundef nonnull align 8 dereferenceable(12) %0) #1 comdat align 2 {
  %2 = alloca i1, align 1
  %3 = alloca ptr, align 8
  store ptr %0, ptr %3, align 8
  %4 = load ptr, ptr %3, align 8
  %5 = call noundef zeroext i1 @_ZNK4llvm5APInt12isSingleWordEv(ptr noundef nonnull align 8 dereferenceable(12) %4)
  br i1 %5, label %6, label %10

6:                                                ; preds = %1
  %7 = getelementptr inbounds nuw %"class.llvm::APInt", ptr %4, i32 0, i32 0
  %8 = load i64, ptr %7, align 8
  %9 = icmp eq i64 %8, 1
  store i1 %9, ptr %2, align 1
  br label %16

10:                                               ; preds = %1
  %11 = call noundef i32 @_ZNK4llvm5APInt25countLeadingZerosSlowCaseEv(ptr noundef nonnull align 8 dereferenceable(12) %4) #17
  %12 = getelementptr inbounds nuw %"class.llvm::APInt", ptr %4, i32 0, i32 1
  %13 = load i32, ptr %12, align 8
  %14 = sub i32 %13, 1
  %15 = icmp eq i32 %11, %14
  store i1 %15, ptr %2, align 1
  br label %16

16:                                               ; preds = %10, %6
  %17 = load i1, ptr %2, align 1
  ret i1 %17
}

; Function Attrs: mustprogress nounwind uwtable
define linkonce_odr hidden noundef i32 @_ZNK4llvm5APInt11getBitWidthEv(ptr noundef nonnull align 8 dereferenceable(12) %0) #1 comdat align 2 {
  %2 = alloca ptr, align 8
  store ptr %0, ptr %2, align 8
  %3 = load ptr, ptr %2, align 8
  %4 = getelementptr inbounds nuw %"class.llvm::APInt", ptr %3, i32 0, i32 1
  %5 = load i32, ptr %4, align 8
  ret i32 %5
}

; Function Attrs: mustprogress nounwind uwtable
define internal noundef nonnull align 8 dereferenceable(144) ptr @_ZN12_GLOBAL__N_110Polynomial3mulERKN4llvm5APIntE(ptr noundef nonnull align 8 dereferenceable(144) %0, ptr noundef nonnull align 8 dereferenceable(12) %1) #1 align 2 {
  %3 = alloca ptr, align 8
  %4 = alloca ptr, align 8
  %5 = alloca ptr, align 8
  store ptr %0, ptr %4, align 8
  store ptr %1, ptr %5, align 8
  %6 = load ptr, ptr %4, align 8
  %7 = load ptr, ptr %5, align 8
  %8 = call noundef i32 @_ZNK4llvm5APInt11getBitWidthEv(ptr noundef nonnull align 8 dereferenceable(12) %7)
  %9 = getelementptr inbounds nuw %"class.(anonymous namespace)::Polynomial", ptr %6, i32 0, i32 3
  %10 = call noundef i32 @_ZNK4llvm5APInt11getBitWidthEv(ptr noundef nonnull align 8 dereferenceable(12) %9)
  %11 = icmp ne i32 %8, %10
  br i1 %11, label %12, label %14

12:                                               ; preds = %2
  %13 = getelementptr inbounds nuw %"class.(anonymous namespace)::Polynomial", ptr %6, i32 0, i32 0
  store i32 -1, ptr %13, align 8
  store ptr %6, ptr %3, align 8
  br label %30

14:                                               ; preds = %2
  %15 = load ptr, ptr %5, align 8
  %16 = call noundef zeroext i1 @_ZNK4llvm5APInt5isOneEv(ptr noundef nonnull align 8 dereferenceable(12) %15)
  br i1 %16, label %17, label %18

17:                                               ; preds = %14
  store ptr %6, ptr %3, align 8
  br label %30

18:                                               ; preds = %14
  %19 = load ptr, ptr %5, align 8
  %20 = call noundef zeroext i1 @_ZNK4llvm5APInt6isZeroEv(ptr noundef nonnull align 8 dereferenceable(12) %19)
  br i1 %20, label %21, label %23

21:                                               ; preds = %18
  %22 = getelementptr inbounds nuw %"class.(anonymous namespace)::Polynomial", ptr %6, i32 0, i32 0
  store i32 0, ptr %22, align 8
  call void @_ZN12_GLOBAL__N_110Polynomial7deleteBEv(ptr noundef nonnull align 8 dereferenceable(144) %6)
  br label %23

23:                                               ; preds = %21, %18
  %24 = load ptr, ptr %5, align 8
  %25 = call noundef i32 @_ZNK4llvm5APInt11countr_zeroEv(ptr noundef nonnull align 8 dereferenceable(12) %24)
  call void @_ZN12_GLOBAL__N_110Polynomial12decErrorMSBsEj(ptr noundef nonnull align 8 dereferenceable(144) %6, i32 noundef %25)
  %26 = load ptr, ptr %5, align 8
  %27 = getelementptr inbounds nuw %"class.(anonymous namespace)::Polynomial", ptr %6, i32 0, i32 3
  %28 = call noundef nonnull align 8 dereferenceable(12) ptr @_ZN4llvm5APIntmLERKS0_(ptr noundef nonnull align 8 dereferenceable(12) %27, ptr noundef nonnull align 8 dereferenceable(12) %26)
  %29 = load ptr, ptr %5, align 8
  call void @_ZN12_GLOBAL__N_110Polynomial14pushBOperationENS0_4BOpsERKN4llvm5APIntE(ptr noundef nonnull align 8 dereferenceable(144) %6, i32 noundef 1, ptr noundef nonnull align 8 dereferenceable(12) %29)
  store ptr %6, ptr %3, align 8
  br label %30

30:                                               ; preds = %23, %17, %12
  %31 = load ptr, ptr %3, align 8
  ret ptr %31
}