; Function Attrs: mustprogress nounwind uwtable
define internal fastcc noundef nonnull align 8 dereferenceable(144) ptr @_ZN12_GLOBAL__N_110Polynomial3mulERKN4llvm5APIntE(ptr noundef nonnull returned align 8 dereferenceable(144) %0, ptr noundef nonnull align 8 dereferenceable(12) %1) unnamed_addr #0 align 2 {
  %3 = getelementptr inbounds nuw i8, ptr %1, i64 8
  %4 = load i32, ptr %3, align 8
  %5 = getelementptr inbounds nuw i8, ptr %0, i64 128
  %6 = getelementptr inbounds i8, ptr %0, i64 136
  %7 = load i32, ptr %6, align 8
  %.not = icmp eq i32 %4, %7
  br i1 %.not, label %9, label %8

8:                                                ; preds = %2
  store i32 -1, ptr %0, align 8
  br label %38

9:                                                ; preds = %2
  %10 = icmp ult i32 %4, 65
  br i1 %10, label %11, label %_ZNK4llvm5APInt5isOneEv.exit

11:                                               ; preds = %9
  %12 = load i64, ptr %1, align 8
  switch i64 %12, label %.thread [
    i64 1, label %38
    i64 0, label %17
  ]

_ZNK4llvm5APInt5isOneEv.exit:                     ; preds = %9
  %13 = tail call noundef i32 @_ZNK4llvm5APInt25countLeadingZerosSlowCaseEv(ptr noundef nonnull align 8 dereferenceable(12) %1) #21
  %14 = add i32 %4, -1
  %15 = icmp eq i32 %13, %14
  br i1 %15, label %38, label %_ZNK4llvm5APInt6isZeroEv.exit

_ZNK4llvm5APInt6isZeroEv.exit:                    ; preds = %_ZNK4llvm5APInt5isOneEv.exit
  %16 = icmp eq i32 %13, %4
  br i1 %16, label %17, label %.thread10

17:                                               ; preds = %11, %_ZNK4llvm5APInt6isZeroEv.exit
  store i32 0, ptr %0, align 8
  %18 = getelementptr inbounds nuw i8, ptr %0, i64 8
  store ptr null, ptr %18, align 8
  %19 = getelementptr inbounds nuw i8, ptr %0, i64 16
  %.val.i.i = load ptr, ptr %19, align 8
  %20 = tail call noundef i64 @_ZNK4llvm15SmallVectorBaseIjE4sizeEv(ptr noundef nonnull align 8 dereferenceable(16) %19) #18
  %.not5.i.i.i = icmp eq i64 %20, 0
  br i1 %.not5.i.i.i, label %.loopexit, label %.lr.ph.i.preheader.i.i

.lr.ph.i.preheader.i.i:                           ; preds = %17
  %21 = getelementptr inbounds %"struct.std::pair.230", ptr %.val.i.i, i64 %20
  br label %.lr.ph.i.i.i

.lr.ph.i.i.i:                                     ; preds = %_ZNSt4pairIN12_GLOBAL__N_110Polynomial4BOpsEN4llvm5APIntEED2Ev.exit.i.i.i, %.lr.ph.i.preheader.i.i
  %.06.i.i.i = phi ptr [ %22, %_ZNSt4pairIN12_GLOBAL__N_110Polynomial4BOpsEN4llvm5APIntEED2Ev.exit.i.i.i ], [ %21, %.lr.ph.i.preheader.i.i ]
  %22 = getelementptr inbounds i8, ptr %.06.i.i.i, i64 -24
  %23 = getelementptr i8, ptr %.06.i.i.i, i64 -16
  %.val.i1.i.i = load ptr, ptr %23, align 8
  %24 = getelementptr i8, ptr %.06.i.i.i, i64 -8
  %.val4.i.i.i = load i32, ptr %24, align 8
  %25 = icmp ult i32 %.val4.i.i.i, 65
  %26 = icmp eq ptr %.val.i1.i.i, null
  %or.cond.i.i.i.i = select i1 %25, i1 true, i1 %26
  br i1 %or.cond.i.i.i.i, label %_ZNSt4pairIN12_GLOBAL__N_110Polynomial4BOpsEN4llvm5APIntEED2Ev.exit.i.i.i, label %27

27:                                               ; preds = %.lr.ph.i.i.i
  tail call void @_ZdaPv(ptr noundef nonnull %.val.i1.i.i) #20
  br label %_ZNSt4pairIN12_GLOBAL__N_110Polynomial4BOpsEN4llvm5APIntEED2Ev.exit.i.i.i

_ZNSt4pairIN12_GLOBAL__N_110Polynomial4BOpsEN4llvm5APIntEED2Ev.exit.i.i.i: ; preds = %27, %.lr.ph.i.i.i
  %.not.i.i.i = icmp eq ptr %.val.i.i, %22
  br i1 %.not.i.i.i, label %.loopexit, label %.lr.ph.i.i.i, !llvm.loop !18

.loopexit:                                        ; preds = %_ZNSt4pairIN12_GLOBAL__N_110Polynomial4BOpsEN4llvm5APIntEED2Ev.exit.i.i.i, %17
  %28 = getelementptr inbounds i8, ptr %0, i64 24
  store i32 0, ptr %28, align 8
  %.pre = load i32, ptr %3, align 8
  %29 = icmp ult i32 %.pre, 65
  br i1 %29, label %.thread, label %.thread10

.thread:                                          ; preds = %11, %.loopexit
  %30 = phi i32 [ %.pre, %.loopexit ], [ %4, %11 ]
  %31 = load i64, ptr %1, align 8
  %32 = tail call range(i64 0, 65) i64 @llvm.cttz.i64(i64 %31, i1 false)
  %33 = trunc nuw nsw i64 %32 to i32
  %..i = tail call i32 @llvm.umin.i32(i32 %30, i32 %33)
  br label %_ZNK4llvm5APInt11countr_zeroEv.exit

.thread10:                                        ; preds = %_ZNK4llvm5APInt6isZeroEv.exit, %.loopexit
  %34 = tail call noundef i32 @_ZNK4llvm5APInt26countTrailingZerosSlowCaseEv(ptr noundef nonnull align 8 dereferenceable(12) %1) #21
  br label %_ZNK4llvm5APInt11countr_zeroEv.exit

_ZNK4llvm5APInt11countr_zeroEv.exit:              ; preds = %.thread, %.thread10
  %.0.i9 = phi i32 [ %..i, %.thread ], [ %34, %.thread10 ]
  %35 = load i32, ptr %0, align 8
  %36 = icmp eq i32 %35, -1
  br i1 %36, label %_ZN12_GLOBAL__N_110Polynomial12decErrorMSBsEj.exit, label %.sink.split.i

.sink.split.i:                                    ; preds = %_ZNK4llvm5APInt11countr_zeroEv.exit
  %.sink.i = tail call i32 @llvm.usub.sat.i32(i32 %35, i32 %.0.i9)
  store i32 %.sink.i, ptr %0, align 8
  br label %_ZN12_GLOBAL__N_110Polynomial12decErrorMSBsEj.exit

_ZN12_GLOBAL__N_110Polynomial12decErrorMSBsEj.exit: ; preds = %_ZNK4llvm5APInt11countr_zeroEv.exit, %.sink.split.i
  %37 = tail call noundef nonnull align 8 dereferenceable(12) ptr @_ZN4llvm5APIntmLERKS0_(ptr noundef nonnull align 8 dereferenceable(12) %5, ptr noundef nonnull align 8 dereferenceable(12) %1) #18
  tail call fastcc void @_ZN12_GLOBAL__N_110Polynomial14pushBOperationENS0_4BOpsERKN4llvm5APIntE(ptr noundef nonnull align 8 dereferenceable(144) %0, i32 noundef 1, ptr noundef nonnull align 8 dereferenceable(12) %1)
  br label %38

38:                                               ; preds = %11, %_ZNK4llvm5APInt5isOneEv.exit, %_ZN12_GLOBAL__N_110Polynomial12decErrorMSBsEj.exit, %8
  ret ptr %0
}